; Function Attrs: nounwind sspstrong uwtable
define internal i64 @lazy_drop(i64 noundef %0, i64 noundef %1) #0 {
  %3 = alloca [2 x i64], align 16
  %4 = and i64 %1, 1
  %.not.i = icmp eq i64 %4, 0
  br i1 %.not.i, label %7, label %5

5:                                                ; preds = %2
  %6 = ashr i64 %1, 1
  br label %rb_num2long_inline.exit

7:                                                ; preds = %2
  %8 = tail call i64 @rb_num2long(i64 noundef %1) #18
  br label %rb_num2long_inline.exit

rb_num2long_inline.exit:                          ; preds = %5, %7
  %.0.i = phi i64 [ %6, %5 ], [ %8, %7 ]
  call void @llvm.lifetime.start.p0(i64 16, ptr nonnull %3) #18
  %9 = load i64, ptr @sym_each, align 8, !tbaa !7
  store i64 %9, ptr %3, align 16, !tbaa !7
  %10 = getelementptr inbounds nuw i8, ptr %3, i64 8
  store i64 %1, ptr %10, align 8, !tbaa !7
  %11 = icmp slt i64 %.0.i, 0
  br i1 %11, label %12, label %14

12:                                               ; preds = %rb_num2long_inline.exit
  %13 = load i64, ptr @rb_eArgError, align 8, !tbaa !7
  tail call void (i64, ptr, ...) @rb_raise(i64 noundef %13, ptr noundef nonnull @.str.133) #19
  unreachable

14:                                               ; preds = %rb_num2long_inline.exit
  %15 = tail call i64 (i64, ...) @rb_ary_new_from_args(i64 noundef 1, i64 noundef %1) #18
  %16 = call fastcc i64 @lazy_add_method(i64 noundef %0, i32 noundef 2, ptr noundef nonnull %3, i64 noundef %1, i64 noundef %15, ptr noundef nonnull @lazy_drop_funcs)
  call void @llvm.lifetime.end.p0(i64 16, ptr nonnull %3) #18
  ret i64 %16
}